target datalayout = "e-m:e-p270:32:32-p271:32:32-p272:64:64-i64:64-i128:128-f80:128-n8:16:32:64-S128"
target triple = "x86_64-pc-linux-gnu"

%struct.AVFilterLink = type { ptr, ptr, ptr, ptr, i32, i32, i32, i32, %struct.AVRational, i32, i32, i32, %struct.AVChannelLayout, %struct.AVRational, ptr, i32, %struct.AVFilterFormatsConfig, %struct.AVFilterFormatsConfig }
%struct.AVChannelLayout = type { i32, i32, %union.anon.1, ptr }
%union.anon.1 = type { i64 }
%struct.AVRational = type { i32, i32 }
%struct.AVFilterFormatsConfig = type { ptr, ptr, ptr, ptr, ptr }
%struct.AVFilterContext = type { ptr, ptr, ptr, ptr, ptr, i32, ptr, ptr, i32, ptr, ptr, i32, i32, ptr, ptr, ptr, ptr, i32, ptr, i32, i32 }
%struct.ColorTemperatureContext = type { ptr, float, float, float, [3 x float], i32, i32, [4 x i8], ptr }
%struct.AVPixFmtDescriptor = type { ptr, i8, i8, i8, i64, [4 x %struct.AVComponentDescriptor], ptr }
%struct.AVComponentDescriptor = type { i32, i32, i32, i32, i32 }

; Function Attrs: cold nounwind optsize uwtable
define internal i32 @config_input(ptr noundef %0) #2 {
  %2 = alloca ptr, align 8
  %3 = alloca ptr, align 8
  %4 = alloca ptr, align 8
  %5 = alloca ptr, align 8
  %6 = alloca i32, align 4
  store ptr %0, ptr %2, align 8, !tbaa !4
  call void @llvm.lifetime.start.p0(i64 8, ptr %3) #7
  %7 = load ptr, ptr %2, align 8, !tbaa !4
  %8 = getelementptr inbounds nuw %struct.AVFilterLink, ptr %7, i32 0, i32 2
  %9 = load ptr, ptr %8, align 8, !tbaa !11
  store ptr %9, ptr %3, align 8, !tbaa !23
  call void @llvm.lifetime.start.p0(i64 8, ptr %4) #7
  %10 = load ptr, ptr %3, align 8, !tbaa !23
  %11 = getelementptr inbounds nuw %struct.AVFilterContext, ptr %10, i32 0, i32 9
  %12 = load ptr, ptr %11, align 8, !tbaa !24
  store ptr %12, ptr %4, align 8, !tbaa !34
  call void @llvm.lifetime.start.p0(i64 8, ptr %5) #7
  %13 = load ptr, ptr %2, align 8, !tbaa !4
  %14 = getelementptr inbounds nuw %struct.AVFilterLink, ptr %13, i32 0, i32 5
  %15 = load i32, ptr %14, align 4, !tbaa !47
  %16 = call ptr @av_pix_fmt_desc_get(i32 noundef %15)
  store ptr %16, ptr %5, align 8, !tbaa !48
  call void @llvm.lifetime.start.p0(i64 4, ptr %6) #7
  %17 = load ptr, ptr %5, align 8, !tbaa !48
  %18 = getelementptr inbounds nuw %struct.AVPixFmtDescriptor, ptr %17, i32 0, i32 4
  %19 = load i64, ptr %18, align 8, !tbaa !50
  %20 = and i64 %19, 16
  %21 = trunc i64 %20 to i32
  store i32 %21, ptr %6, align 4, !tbaa !52
  %22 = load ptr, ptr %5, align 8, !tbaa !48
  %23 = getelementptr inbounds nuw %struct.AVPixFmtDescriptor, ptr %22, i32 0, i32 1
  %24 = load i8, ptr %23, align 8, !tbaa !53
  %25 = zext i8 %24 to i32
  %26 = load ptr, ptr %4, align 8, !tbaa !34
  %27 = getelementptr inbounds nuw %struct.ColorTemperatureContext, ptr %26, i32 0, i32 5
  store i32 %25, ptr %27, align 8, !tbaa !54
  %28 = load ptr, ptr %2, align 8, !tbaa !4
  %29 = getelementptr inbounds nuw %struct.AVFilterLink, ptr %28, i32 0, i32 5
  %30 = load i32, ptr %29, align 4, !tbaa !47
  %31 = icmp eq i32 %30, 119
  br i1 %31, label %47, label %32

32:                                               ; preds = %1
  %33 = load ptr, ptr %2, align 8, !tbaa !4
  %34 = getelementptr inbounds nuw %struct.AVFilterLink, ptr %33, i32 0, i32 5
  %35 = load i32, ptr %34, align 4, !tbaa !47
  %36 = icmp eq i32 %35, 118
  br i1 %36, label %47, label %37

37:                                               ; preds = %32
  %38 = load ptr, ptr %2, align 8, !tbaa !4
  %39 = getelementptr inbounds nuw %struct.AVFilterLink, ptr %38, i32 0, i32 5
  %40 = load i32, ptr %39, align 4, !tbaa !47
  %41 = icmp eq i32 %40, 121
  br i1 %41, label %47, label %42

42:                                               ; preds = %37
  %43 = load ptr, ptr %2, align 8, !tbaa !4
  %44 = getelementptr inbounds nuw %struct.AVFilterLink, ptr %43, i32 0, i32 5
  %45 = load i32, ptr %44, align 4, !tbaa !47
  %46 = icmp eq i32 %45, 120
  br i1 %46, label %47, label %50

47:                                               ; preds = %42, %37, %32, %1
  %48 = load ptr, ptr %4, align 8, !tbaa !34
  %49 = getelementptr inbounds nuw %struct.ColorTemperatureContext, ptr %48, i32 0, i32 5
  store i32 4, ptr %49, align 8, !tbaa !54
  br label %50

50:                                               ; preds = %47, %42
  %51 = load ptr, ptr %5, align 8, !tbaa !48
  %52 = getelementptr inbounds nuw %struct.AVPixFmtDescriptor, ptr %51, i32 0, i32 5
  %53 = getelementptr inbounds [4 x %struct.AVComponentDescriptor], ptr %52, i64 0, i64 0
  %54 = getelementptr inbounds nuw %struct.AVComponentDescriptor, ptr %53, i32 0, i32 4
  %55 = load i32, ptr %54, align 8, !tbaa !55
  %56 = load ptr, ptr %4, align 8, !tbaa !34
  %57 = getelementptr inbounds nuw %struct.ColorTemperatureContext, ptr %56, i32 0, i32 6
  store i32 %55, ptr %57, align 4, !tbaa !57
  %58 = load ptr, ptr %4, align 8, !tbaa !34
  %59 = getelementptr inbounds nuw %struct.ColorTemperatureContext, ptr %58, i32 0, i32 6
  %60 = load i32, ptr %59, align 4, !tbaa !57
  %61 = icmp sle i32 %60, 8
  %62 = select i1 %61, ptr @temperature_slice8, ptr @temperature_slice16
  %63 = load ptr, ptr %4, align 8, !tbaa !34
  %64 = getelementptr inbounds nuw %struct.ColorTemperatureContext, ptr %63, i32 0, i32 8
  store ptr %62, ptr %64, align 8, !tbaa !39
  %65 = load i32, ptr %6, align 4, !tbaa !52
  %66 = icmp ne i32 %65, 0
  br i1 %66, label %75, label %67

67:                                               ; preds = %50
  %68 = load ptr, ptr %4, align 8, !tbaa !34
  %69 = getelementptr inbounds nuw %struct.ColorTemperatureContext, ptr %68, i32 0, i32 6
  %70 = load i32, ptr %69, align 4, !tbaa !57
  %71 = icmp sle i32 %70, 8
  %72 = select i1 %71, ptr @temperature_slice8p, ptr @temperature_slice16p
  %73 = load ptr, ptr %4, align 8, !tbaa !34
  %74 = getelementptr inbounds nuw %struct.ColorTemperatureContext, ptr %73, i32 0, i32 8
  store ptr %72, ptr %74, align 8, !tbaa !39
  br label %75

75:                                               ; preds = %67, %50
  %76 = load ptr, ptr %4, align 8, !tbaa !34
  %77 = getelementptr inbounds nuw %struct.ColorTemperatureContext, ptr %76, i32 0, i32 6
  %78 = load i32, ptr %77, align 4, !tbaa !57
  %79 = icmp eq i32 %78, 32
  br i1 %79, label %80, label %83

80:                                               ; preds = %75
  %81 = load ptr, ptr %4, align 8, !tbaa !34
  %82 = getelementptr inbounds nuw %struct.ColorTemperatureContext, ptr %81, i32 0, i32 8
  store ptr @temperature_slice32, ptr %82, align 8, !tbaa !39
  br label %83

83:                                               ; preds = %80, %75
  %84 = load ptr, ptr %4, align 8, !tbaa !34
  %85 = getelementptr inbounds nuw %struct.ColorTemperatureContext, ptr %84, i32 0, i32 7
  %86 = getelementptr inbounds [4 x i8], ptr %85, i64 0, i64 0
  %87 = load ptr, ptr %2, align 8, !tbaa !4
  %88 = getelementptr inbounds nuw %struct.AVFilterLink, ptr %87, i32 0, i32 5
  %89 = load i32, ptr %88, align 4, !tbaa !47
  %90 = call i32 @ff_fill_rgba_map(ptr noundef %86, i32 noundef %89)
  call void @llvm.lifetime.end.p0(i64 4, ptr %6) #7
  call void @llvm.lifetime.end.p0(i64 8, ptr %5) #7
  call void @llvm.lifetime.end.p0(i64 8, ptr %4) #7
  call void @llvm.lifetime.end.p0(i64 8, ptr %3) #7
  ret i32 0
}