; Function Attrs: cold nounwind optsize uwtable
define internal noundef i32 @config_input(ptr noundef readonly captures(none) %0) #2 {
  %2 = getelementptr inbounds nuw i8, ptr %0, i64 16
  %3 = load ptr, ptr %2, align 8, !tbaa !4
  %4 = getelementptr inbounds nuw i8, ptr %3, i64 72
  %5 = load ptr, ptr %4, align 8, !tbaa !19
  %6 = getelementptr inbounds nuw i8, ptr %0, i64 36
  %7 = load i32, ptr %6, align 4, !tbaa !43
  %8 = tail call ptr @av_pix_fmt_desc_get(i32 noundef %7) #8
  %9 = getelementptr inbounds nuw i8, ptr %8, i64 16
  %10 = load i64, ptr %9, align 8, !tbaa !44
  %11 = getelementptr inbounds nuw i8, ptr %8, i64 8
  %12 = load i8, ptr %11, align 8, !tbaa !46
  %13 = zext i8 %12 to i32
  %14 = getelementptr inbounds nuw i8, ptr %5, i64 32
  %15 = load i32, ptr %6, align 4, !tbaa !43
  %.off = add i32 %15, -118
  %switch = icmp ult i32 %.off, 4
  %spec.store.select = select i1 %switch, i32 4, i32 %13
  store i32 %spec.store.select, ptr %14, align 8
  %16 = getelementptr inbounds nuw i8, ptr %8, i64 40
  %17 = load i32, ptr %16, align 8, !tbaa !47
  %18 = getelementptr inbounds nuw i8, ptr %5, i64 36
  store i32 %17, ptr %18, align 4, !tbaa !49
  %19 = icmp slt i32 %17, 9
  %20 = select i1 %19, ptr @temperature_slice8, ptr @temperature_slice16
  %21 = and i64 %10, 16
  %.not = icmp eq i64 %21, 0
  %22 = select i1 %19, ptr @temperature_slice8p, ptr @temperature_slice16p
  %spec.select = select i1 %.not, ptr %22, ptr %20
  %23 = icmp eq i32 %17, 32
  %storemerge21 = select i1 %23, ptr @temperature_slice32, ptr %spec.select
  %24 = getelementptr inbounds nuw i8, ptr %5, i64 48
  store ptr %storemerge21, ptr %24, align 8, !tbaa !33
  %25 = getelementptr inbounds nuw i8, ptr %5, i64 40
  %26 = load i32, ptr %6, align 4, !tbaa !43
  %27 = tail call i32 @ff_fill_rgba_map(ptr noundef nonnull %25, i32 noundef %26) #8
  ret i32 0
}